; Function Attrs: mustprogress uwtable
define internal void @"_ZNSt17_Function_handlerIFvllEZN18OpenImageIO_v2_6_03pvt27parallel_convert_from_floatEPKfPvmNS1_8TypeDescEE3$_0E9_M_invokeERKSt9_Any_dataOlSC_"(ptr nocapture noundef nonnull readonly align 8 dereferenceable(16) %__functor, ptr nocapture noundef nonnull readonly align 8 dereferenceable(8) %__args, ptr nocapture noundef nonnull readonly align 8 dereferenceable(8) %__args1) #5 align 2 {
entry:
  %agg.tmp.i.i.i = alloca %"struct.OpenImageIO_v2_6_0::TypeDesc", align 4
  %__functor.val = load ptr, ptr %__functor, align 8
  %__args.val = load i64, ptr %__args, align 8
  %__args1.val = load i64, ptr %__args1, align 8
  call void @llvm.lifetime.start.p0(i64 8, ptr nonnull %agg.tmp.i.i.i)
  %0 = load ptr, ptr %__functor.val, align 8
  %add.ptr.i.i.i = getelementptr inbounds float, ptr %0, i64 %__args.val
  %1 = getelementptr inbounds i8, ptr %__functor.val, i64 8
  %2 = load ptr, ptr %1, align 8
  %3 = getelementptr inbounds i8, ptr %__functor.val, i64 16
  %arraylen.i.i.i.i = getelementptr inbounds i8, ptr %__functor.val, i64 20
  %4 = load i32, ptr %arraylen.i.i.i.i, align 4
  %narrow.i.i.i.i = tail call i32 @llvm.smax.i32(i32 %4, i32 1)
  %spec.select.i.i.i.i = zext nneg i32 %narrow.i.i.i.i to i64
  %aggregate.i.i.i.i.i = getelementptr inbounds i8, ptr %__functor.val, i64 17
  %5 = load i8, ptr %aggregate.i.i.i.i.i, align 1
  %conv.i.i.i.i.i = zext i8 %5 to i64
  %call.i.i.i.i.i = tail call noundef i64 @_ZNK18OpenImageIO_v2_6_08TypeDesc8basesizeEv(ptr noundef nonnull align 4 dereferenceable(8) %3) #8
  %mul.i.i.i.i.i = mul i64 %__args.val, %conv.i.i.i.i.i
  %mul.i.i.i.i = mul i64 %mul.i.i.i.i.i, %call.i.i.i.i.i
  %mul.i.i.i = mul i64 %mul.i.i.i.i, %spec.select.i.i.i.i
  %add.ptr2.i.i.i = getelementptr inbounds i8, ptr %2, i64 %mul.i.i.i
  %sub.i.i.i = sub nsw i64 %__args1.val, %__args.val
  %6 = load i8, ptr %3, align 4
  store i8 %6, ptr %agg.tmp.i.i.i, align 4
  %aggregate.i.i.i.i = getelementptr inbounds i8, ptr %agg.tmp.i.i.i, i64 1
  %7 = load i8, ptr %aggregate.i.i.i.i.i, align 1
  store i8 %7, ptr %aggregate.i.i.i.i, align 1
  %vecsemantics.i.i.i.i = getelementptr inbounds i8, ptr %agg.tmp.i.i.i, i64 2
  %vecsemantics4.i.i.i.i = getelementptr inbounds i8, ptr %__functor.val, i64 18
  %8 = load i8, ptr %vecsemantics4.i.i.i.i, align 2
  store i8 %8, ptr %vecsemantics.i.i.i.i, align 2
  %reserved.i.i.i.i = getelementptr inbounds i8, ptr %agg.tmp.i.i.i, i64 3
  store i8 0, ptr %reserved.i.i.i.i, align 1
  %arraylen.i3.i.i.i = getelementptr inbounds i8, ptr %agg.tmp.i.i.i, i64 4
  %9 = load i32, ptr %arraylen.i.i.i.i, align 4
  store i32 %9, ptr %arraylen.i3.i.i.i, align 4
  %call3.i.i.i = call noundef ptr @_ZN18OpenImageIO_v2_6_03pvt18convert_from_floatEPKfPvmNS_8TypeDescE(ptr noundef %add.ptr.i.i.i, ptr noundef %add.ptr2.i.i.i, i64 noundef %sub.i.i.i, ptr noundef nonnull %agg.tmp.i.i.i)
  call void @llvm.lifetime.end.p0(i64 8, ptr nonnull %agg.tmp.i.i.i)
  ret void
}